target datalayout = "e-m:e-p270:32:32-p271:32:32-p272:64:64-i64:64-i128:128-f80:128-n8:16:32:64-S128"
target triple = "x86_64-pc-linux-gnu"

%struct.ruby_cmdline_options = type { ptr, i64, i64, %struct.anon, %struct.anon, %struct.anon, i64, %struct.ruby_features_t, %struct.ruby_features_t, i32, i64, ptr, i16 }
%struct.anon = type { %struct.anon.0 }
%struct.anon.0 = type { i64, i32 }
%struct.ruby_features_t = type { i32, i32 }

@.str.18 = private unnamed_addr constant [7 x i8] c" +YJIT\00", align 1
@.str.19 = private unnamed_addr constant [1 x i8] zeroinitializer, align 1

; Function Attrs: nounwind sspstrong uwtable
define hidden void @Init_ruby_description(ptr noundef %0) #0 {
  %2 = alloca ptr, align 8
  %3 = alloca ptr, align 8
  store ptr %0, ptr %2, align 8, !tbaa !20
  call void @llvm.lifetime.start.p0(i64 8, ptr %3) #10
  %4 = load ptr, ptr %2, align 8, !tbaa !20
  %5 = getelementptr inbounds nuw %struct.ruby_cmdline_options, ptr %4, i32 0, i32 12
  %6 = load i16, ptr %5, align 8
  %7 = lshr i16 %6, 12
  %8 = and i16 %7, 1
  %9 = zext i16 %8 to i32
  %10 = icmp ne i32 %9, 0
  %11 = select i1 %10, ptr @.str.18, ptr @.str.19
  store ptr %11, ptr %3, align 8, !tbaa !11
  %12 = load ptr, ptr %3, align 8, !tbaa !11
  call void @define_ruby_description(ptr noundef %12)
  call void @llvm.lifetime.end.p0(i64 8, ptr %3) #10
  ret void
}