; Function Attrs: nounwind sspstrong uwtable
define hidden void @Init_ruby_description(ptr noundef readonly captures(none) %0) local_unnamed_addr #0 {
  %2 = getelementptr inbounds nuw i8, ptr %0, i64 120
  %3 = load i16, ptr %2, align 8
  %4 = and i16 %3, 4096
  %.not = icmp eq i16 %4, 0
  %5 = select i1 %.not, ptr @.str.19, ptr @.str.18
  tail call fastcc void @define_ruby_description(ptr noundef nonnull %5)
  ret void
}